; Function Attrs: nounwind sspstrong uwtable
define dso_local zeroext i1 @visit_type_BlockdevBackup_members(ptr noundef %v, ptr noundef %obj, ptr noundef %errp) local_unnamed_addr #0 {
entry:
  %call = tail call zeroext i1 @visit_type_BackupCommon_members(ptr noundef %v, ptr noundef %obj, ptr noundef %errp)
  br i1 %call, label %if.end, label %return

if.end:                                           ; preds = %entry
  %target = getelementptr inbounds nuw i8, ptr %obj, i64 88
  %call1 = tail call zeroext i1 @visit_type_str(ptr noundef %v, ptr noundef nonnull @.str.204, ptr noundef nonnull %target, ptr noundef %errp) #5
  br label %return

return:                                           ; preds = %if.end, %entry
  %retval.0 = phi i1 [ false, %entry ], [ %call1, %if.end ]
  ret i1 %retval.0
}